; Function Attrs: mustprogress nounwind memory(read, inaccessiblemem: write) uwtable
define internal fastcc noundef i64 @_ZN8facebook5velox9functions12_GLOBAL__N_111widthBucketIlEEldRNS0_13DecodedVectorEii(double noundef %operand, ptr nocapture noundef nonnull readonly align 8 dereferenceable(120) %elementsHolder, i32 noundef %offset, i32 noundef %binCount) unnamed_addr #17 {
entry:
  %cmp = icmp slt i32 %binCount, 1
  br i1 %cmp, label %if.then, label %if.end

if.then:                                          ; preds = %entry
  tail call void @llvm.trap()
  unreachable

if.end:                                           ; preds = %entry
  %0 = fcmp uno double %operand, 0.000000e+00
  br i1 %0, label %if.then3, label %while.body.lr.ph

while.body.lr.ph:                                 ; preds = %if.end
  %data_.i = getelementptr inbounds i8, ptr %elementsHolder, i64 16
  %1 = load ptr, ptr %data_.i, align 8
  %isIdentityMapping_.i.i = getelementptr inbounds i8, ptr %elementsHolder, i64 58
  %2 = load i8, ptr %isIdentityMapping_.i.i, align 2
  %3 = and i8 %2, 1
  %tobool.not.i.i = icmp eq i8 %3, 0
  %invariant.gep = getelementptr i8, ptr %1, i64 -8
  %indices_.i.i = getelementptr inbounds i8, ptr %elementsHolder, i64 8
  %4 = load ptr, ptr %indices_.i.i, align 8
  %constantIndex_.i.i = getelementptr inbounds i8, ptr %elementsHolder, i64 64
  %invariant.gep66 = getelementptr i8, ptr %4, i64 -4
  %5 = load i32, ptr %constantIndex_.i.i, align 8
  br i1 %tobool.not.i.i, label %while.body.lr.ph.split.us, label %while.body

while.body.lr.ph.split.us:                        ; preds = %while.body.lr.ph
  %isConstantMapping_.i.i = getelementptr inbounds i8, ptr %elementsHolder, i64 59
  %6 = load i8, ptr %isConstantMapping_.i.i, align 1
  %.fr129 = freeze i8 %6
  %7 = and i8 %.fr129, 1
  %tobool2.not.i.i = icmp eq i8 %7, 0
  br i1 %tobool2.not.i.i, label %while.body.us.us, label %while.body.lr.ph.split.us.split.split.split.split

while.body.us.us:                                 ; preds = %while.body.lr.ph.split.us, %if.end12.us.us
  %lower.065.us.us = phi i32 [ %lower.1.us.us, %if.end12.us.us ], [ 0, %while.body.lr.ph.split.us ]
  %upper.064.us.us = phi i32 [ %upper.1.us.us, %if.end12.us.us ], [ %binCount, %while.body.lr.ph.split.us ]
  %add.us.us = add nsw i32 %lower.065.us.us, %offset
  %idxprom.i.i.us.us = sext i32 %add.us.us to i64
  %arrayidx.i.i.us.us = getelementptr inbounds i32, ptr %4, i64 %idxprom.i.i.us.us
  %retval.0.i.i.ph.us.us = load i32, ptr %arrayidx.i.i.us.us, align 4
  %idxprom.i49.us.us = sext i32 %retval.0.i.i.ph.us.us to i64
  %arrayidx.i50.us.us = getelementptr inbounds i64, ptr %1, i64 %idxprom.i49.us.us
  %8 = load i64, ptr %arrayidx.i50.us.us, align 8
  %add751.us.us = add nsw i32 %upper.064.us.us, %offset
  %9 = sext i32 %add751.us.us to i64
  %gep67.us.us = getelementptr i32, ptr %invariant.gep66, i64 %9
  %retval.0.i.i19.us.us = load i32, ptr %gep67.us.us, align 4
  %idxprom.i20.us.us = sext i32 %retval.0.i.i19.us.us to i64
  %arrayidx.i21.us.us = getelementptr inbounds i64, ptr %1, i64 %idxprom.i20.us.us
  %10 = load i64, ptr %arrayidx.i21.us.us, align 8
  %cmp9.not.us.us = icmp sgt i64 %8, %10
  br i1 %cmp9.not.us.us, label %if.then11, label %if.end12.us.us

if.end12.us.us:                                   ; preds = %while.body.us.us
  %add13.us.us = add nuw nsw i32 %lower.065.us.us, %upper.064.us.us
  %div15.us.us = lshr i32 %add13.us.us, 1
  %add14.us.us = add nsw i32 %div15.us.us, %offset
  %idxprom.i.i45.us.us = sext i32 %add14.us.us to i64
  %arrayidx.i.i46.us.us = getelementptr inbounds i32, ptr %4, i64 %idxprom.i.i45.us.us
  %11 = load i32, ptr %arrayidx.i.i46.us.us, align 4
  %idxprom.i36.us.us = sext i32 %11 to i64
  %arrayidx.i37.us.us = getelementptr inbounds i64, ptr %1, i64 %idxprom.i36.us.us
  %12 = load i64, ptr %arrayidx.i37.us.us, align 8
  %conv.us.us = sitofp i64 %12 to double
  %cmp20.us.us = fcmp ogt double %conv.us.us, %operand
  %add22.us.us = add nuw nsw i32 %div15.us.us, 1
  %upper.1.us.us = select i1 %cmp20.us.us, i32 %div15.us.us, i32 %upper.064.us.us
  %lower.1.us.us = select i1 %cmp20.us.us, i32 %lower.065.us.us, i32 %add22.us.us
  %cmp5.us.us = icmp slt i32 %lower.1.us.us, %upper.1.us.us
  br i1 %cmp5.us.us, label %while.body.us.us, label %while.end, !llvm.loop !91

while.body.lr.ph.split.us.split.split.split.split: ; preds = %while.body.lr.ph.split.us
  %idxprom.i36.us = sext i32 %5 to i64
  %arrayidx.i37.us = getelementptr inbounds i64, ptr %1, i64 %idxprom.i36.us
  %13 = load i64, ptr %arrayidx.i37.us, align 8
  %.fr = freeze i64 %13
  %conv.us = sitofp i64 %.fr to double
  %cmp20.us = fcmp ogt double %conv.us, %operand
  br i1 %cmp20.us, label %while.end, label %while.body.us

while.body.us:                                    ; preds = %while.body.lr.ph.split.us.split.split.split.split, %while.body.us
  %lower.065.us = phi i32 [ %add22.us, %while.body.us ], [ 0, %while.body.lr.ph.split.us.split.split.split.split ]
  %add13.us = add nuw nsw i32 %lower.065.us, %binCount
  %div15.us = lshr i32 %add13.us, 1
  %add22.us = add nuw nsw i32 %div15.us, 1
  %cmp5.us = icmp ult i32 %add22.us, %binCount
  br i1 %cmp5.us, label %while.body.us, label %while.end, !llvm.loop !91

if.then3:                                         ; preds = %if.end
  tail call void @llvm.trap()
  unreachable

while.body:                                       ; preds = %while.body.lr.ph, %if.end12.thread
  %lower.065 = phi i32 [ %lower.1, %if.end12.thread ], [ 0, %while.body.lr.ph ]
  %upper.064 = phi i32 [ %upper.1, %if.end12.thread ], [ %binCount, %while.body.lr.ph ]
  %add = add nsw i32 %lower.065, %offset
  %idxprom.i = sext i32 %add to i64
  %arrayidx.i = getelementptr inbounds i64, ptr %1, i64 %idxprom.i
  %14 = load i64, ptr %arrayidx.i, align 8
  %add7 = add nsw i32 %upper.064, %offset
  %15 = sext i32 %add7 to i64
  %gep = getelementptr i64, ptr %invariant.gep, i64 %15
  %16 = load i64, ptr %gep, align 8
  %cmp9.not57 = icmp sgt i64 %14, %16
  br i1 %cmp9.not57, label %if.then11, label %if.end12.thread

if.end12.thread:                                  ; preds = %while.body
  %add1358 = add nuw nsw i32 %lower.065, %upper.064
  %div1559 = lshr i32 %add1358, 1
  %add1460 = add nsw i32 %div1559, %offset
  %idxprom.i36 = sext i32 %add1460 to i64
  %arrayidx.i37 = getelementptr inbounds i64, ptr %1, i64 %idxprom.i36
  %17 = load i64, ptr %arrayidx.i37, align 8
  %conv = sitofp i64 %17 to double
  %cmp20 = fcmp ogt double %conv, %operand
  %add22 = add nuw nsw i32 %div1559, 1
  %upper.1 = select i1 %cmp20, i32 %div1559, i32 %upper.064
  %lower.1 = select i1 %cmp20, i32 %lower.065, i32 %add22
  %cmp5 = icmp slt i32 %lower.1, %upper.1
  br i1 %cmp5, label %while.body, label %while.end, !llvm.loop !91

if.then11:                                        ; preds = %while.body, %while.body.us.us
  tail call void @llvm.trap()
  unreachable

while.end:                                        ; preds = %if.end12.thread, %while.body.us, %if.end12.us.us, %while.body.lr.ph.split.us.split.split.split.split
  %lower.0.lcssa = phi i32 [ 0, %while.body.lr.ph.split.us.split.split.split.split ], [ %lower.1.us.us, %if.end12.us.us ], [ %add22.us, %while.body.us ], [ %lower.1, %if.end12.thread ]
  %conv24 = zext nneg i32 %lower.0.lcssa to i64
  ret i64 %conv24
}